; Function Attrs: mustprogress nofree norecurse nosync nounwind willreturn memory(read, inaccessiblemem: none) uwtable
define hidden noundef ptr @_ZN2cv12ppf_match_3d24hashtableGetBucketHashedEPNS0_8HSHTBL_iEj(ptr noundef readonly captures(none) %0, i32 noundef %1) local_unnamed_addr #12 {
  %3 = zext i32 %1 to i64
  %4 = load i64, ptr %0, align 8, !tbaa !11
  %5 = urem i64 %3, %4
  %6 = getelementptr inbounds nuw i8, ptr %0, i64 8
  %7 = load ptr, ptr %6, align 8, !tbaa !3
  %8 = getelementptr inbounds nuw ptr, ptr %7, i64 %5
  %9 = load ptr, ptr %8, align 8, !tbaa !13
  ret ptr %9
}